; Function Attrs: nounwind uwtable
define internal fastcc range(i32 -1, 1) i32 @_get_probs(ptr noundef readonly captures(none) %0, ptr readonly captures(none) %.8.val, ptr noundef captures(none) initializes((0, 8)) %1) unnamed_addr #0 {
  %3 = alloca %struct.dbd_list_msg_t, align 8
  call void @llvm.lifetime.start.p0(i64 16, ptr nonnull %3) #10
  %4 = getelementptr inbounds nuw i8, ptr %3, i64 8
  store i64 0, ptr %4, align 8
  %5 = tail call i32 @get_log_level() #10
  %6 = icmp sgt i32 %5, 5
  br i1 %6, label %7, label %11

7:                                                ; preds = %2
  %8 = load ptr, ptr %0, align 8
  %9 = getelementptr inbounds nuw i8, ptr %8, i64 60
  %10 = load i32, ptr %9, align 4
  tail call void (i32, ptr, ...) @log_var(i32 noundef 6, ptr noundef nonnull @.str.74, i32 noundef %10) #10
  br label %11

11:                                               ; preds = %7, %2
  %12 = getelementptr inbounds nuw i8, ptr %0, i64 56
  %13 = load ptr, ptr %12, align 8
  %14 = load ptr, ptr %0, align 8
  %15 = getelementptr inbounds nuw i8, ptr %14, i64 8
  %16 = load i32, ptr %15, align 8
  %17 = load ptr, ptr %.8.val, align 8
  %18 = tail call ptr @acct_storage_g_get_problems(ptr noundef %13, i32 noundef %16, ptr noundef %17) #10
  store ptr %18, ptr %3, align 8
  %19 = tail call ptr @__errno_location() #12
  %20 = load i32, ptr %19, align 4
  %.not = icmp eq i32 %20, 0
  br i1 %.not, label %21, label %30

21:                                               ; preds = %11
  %.not13 = icmp eq ptr %18, null
  br i1 %.not13, label %22, label %24

22:                                               ; preds = %21
  %23 = tail call ptr @list_create(ptr noundef null) #10
  store ptr %23, ptr %3, align 8
  br label %24

24:                                               ; preds = %22, %21
  %25 = tail call ptr @init_buf(i32 noundef 1024) #10
  store ptr %25, ptr %1, align 8
  tail call void @pack16(i16 noundef zeroext 1469, ptr noundef %25) #10
  %26 = load ptr, ptr %0, align 8
  %27 = getelementptr inbounds nuw i8, ptr %26, i64 168
  %28 = load i16, ptr %27, align 8
  %29 = load ptr, ptr %1, align 8
  call void @slurmdbd_pack_list_msg(ptr noundef nonnull %3, i16 noundef zeroext %28, i32 noundef 1469, ptr noundef %29) #10
  %.pre = load ptr, ptr %3, align 8
  br label %34

30:                                               ; preds = %11
  %31 = load ptr, ptr %0, align 8
  %32 = tail call ptr @slurm_strerror(i32 noundef %20) #10
  %33 = tail call ptr @slurm_persist_make_rc_msg(ptr noundef %31, i32 noundef %20, ptr noundef %32, i16 noundef zeroext 1468) #10
  store ptr %33, ptr %1, align 8
  br label %34

34:                                               ; preds = %24, %30
  %35 = phi ptr [ %18, %30 ], [ %.pre, %24 ]
  %.0 = phi i32 [ -1, %30 ], [ 0, %24 ]
  %.not14 = icmp eq ptr %35, null
  br i1 %.not14, label %37, label %36

36:                                               ; preds = %34
  call void @list_destroy(ptr noundef nonnull %35) #10
  br label %37

37:                                               ; preds = %36, %34
  call void @llvm.lifetime.end.p0(i64 16, ptr nonnull %3) #10
  ret i32 %.0
}